; Function Attrs: mustprogress nofree norecurse nosync nounwind willreturn memory(argmem: read) uwtable
define hidden noundef i32 @_ZNK11doc_manager23get_size_estimate_bytesERK3doc(ptr nocapture noundef nonnull readonly align 8 dereferenceable(1080) %this, ptr nocapture noundef nonnull readonly align 8 dereferenceable(88) %d) local_unnamed_addr #6 align 2 {
entry:
  %m_num_bytes.i.i = getelementptr inbounds i8, ptr %this, i64 524
  %0 = load i32, ptr %m_num_bytes.i.i, align 4
  %.fr8.i = freeze i32 %0
  %m_pos.i.i.i = getelementptr inbounds i8, ptr %d, i64 16
  %1 = load i32, ptr %m_pos.i.i.i, align 8
  %2 = add i32 %.fr8.i, 8
  %3 = mul i32 %2, %1
  %add = add i32 %.fr8.i, 88
  %add6 = add i32 %add, %3
  ret i32 %add6
}